; Function Attrs: mustprogress uwtable
define void @_ZN25PickedPointTreeWidgetItemC2ERN3vcg6Point3IfEES3_7QStringb(ptr noundef nonnull align 8 dereferenceable(85) %0, ptr nocapture noundef nonnull readonly align 4 dereferenceable(12) %1, ptr nocapture noundef nonnull readonly align 4 dereferenceable(12) %2, ptr nocapture noundef readonly %3, i1 noundef zeroext %4) unnamed_addr #9 align 2 personality ptr @__gxx_personality_v0 {
  %6 = alloca %class.QVariant, align 8
  %7 = alloca %class.QString, align 8
  tail call void @_ZN15QTreeWidgetItemC2Ei(ptr noundef nonnull align 8 dereferenceable(60) %0, i32 noundef 1001)
  store ptr getelementptr inbounds ({ [10 x ptr] }, ptr @_ZTV25PickedPointTreeWidgetItem, i64 0, i32 0, i64 2), ptr %0, align 8
  %8 = load ptr, ptr %3, align 8
  store ptr %8, ptr %7, align 8
  %9 = load atomic i32, ptr %8 monotonic, align 4
  %10 = add i32 %9, -1
  %or.cond.not.i.i = icmp ult i32 %10, -2
  br i1 %or.cond.not.i.i, label %11, label %_ZN7QStringC2ERKS_.exit

11:                                               ; preds = %5
  %12 = atomicrmw add ptr %8, i32 1 seq_cst, align 4
  br label %_ZN7QStringC2ERKS_.exit

_ZN7QStringC2ERKS_.exit:                          ; preds = %5, %11
  call void @llvm.lifetime.start.p0(i64 16, ptr nonnull %6)
  invoke void @_ZN8QVariantC1ERK7QString(ptr noundef nonnull align 8 dereferenceable(16) %6, ptr noundef nonnull align 8 dereferenceable(8) %7)
          to label %.noexc unwind label %28

.noexc:                                           ; preds = %_ZN7QStringC2ERKS_.exit
  %13 = load ptr, ptr %0, align 8
  %14 = getelementptr inbounds i8, ptr %13, i64 32
  %15 = load ptr, ptr %14, align 8
  invoke void %15(ptr noundef nonnull align 8 dereferenceable(60) %0, i32 noundef 0, i32 noundef 0, ptr noundef nonnull align 8 dereferenceable(16) %6)
          to label %18 unwind label %16

16:                                               ; preds = %.noexc
  %17 = landingpad { ptr, i32 }
          cleanup
  call void @_ZN8QVariantD1Ev(ptr noundef nonnull align 8 dereferenceable(16) %6) #27
  br label %.body

18:                                               ; preds = %.noexc
  call void @_ZN8QVariantD1Ev(ptr noundef nonnull align 8 dereferenceable(16) %6) #27
  call void @llvm.lifetime.end.p0(i64 16, ptr nonnull %6)
  %19 = zext i1 %4 to i8
  %20 = load ptr, ptr %7, align 8
  %21 = load atomic i32, ptr %20 monotonic, align 4
  switch i32 %21, label %_ZN9QtPrivate8RefCount5derefEv.exit.i [
    i32 0, label %_ZN9QtPrivate8RefCount5derefEv.exit.thread2.i
    i32 -1, label %_ZN7QStringD2Ev.exit
  ]

_ZN9QtPrivate8RefCount5derefEv.exit.i:            ; preds = %18
  %22 = atomicrmw sub ptr %20, i32 1 seq_cst, align 4
  %.not.i = icmp eq i32 %22, 1
  br i1 %.not.i, label %_ZN9QtPrivate8RefCount5derefEv.exit._ZN9QtPrivate8RefCount5derefEv.exit.thread2_crit_edge.i, label %_ZN7QStringD2Ev.exit

_ZN9QtPrivate8RefCount5derefEv.exit._ZN9QtPrivate8RefCount5derefEv.exit.thread2_crit_edge.i: ; preds = %_ZN9QtPrivate8RefCount5derefEv.exit.i
  %.pre.i = load ptr, ptr %7, align 8
  br label %_ZN9QtPrivate8RefCount5derefEv.exit.thread2.i

_ZN9QtPrivate8RefCount5derefEv.exit.thread2.i:    ; preds = %_ZN9QtPrivate8RefCount5derefEv.exit._ZN9QtPrivate8RefCount5derefEv.exit.thread2_crit_edge.i, %18
  %23 = phi ptr [ %.pre.i, %_ZN9QtPrivate8RefCount5derefEv.exit._ZN9QtPrivate8RefCount5derefEv.exit.thread2_crit_edge.i ], [ %20, %18 ]
  call void @_ZN10QArrayData10deallocateEPS_mm(ptr noundef %23, i64 noundef 2, i64 noundef 8) #27
  br label %_ZN7QStringD2Ev.exit

_ZN7QStringD2Ev.exit:                             ; preds = %18, %_ZN9QtPrivate8RefCount5derefEv.exit.i, %_ZN9QtPrivate8RefCount5derefEv.exit.thread2.i
  %24 = getelementptr inbounds i8, ptr %0, i64 84
  store i8 %19, ptr %24, align 4
  invoke void @_ZN25PickedPointTreeWidgetItem17setPointAndNormalERN3vcg6Point3IfEES3_(ptr noundef nonnull align 8 dereferenceable(85) %0, ptr noundef nonnull align 4 dereferenceable(12) %1, ptr noundef nonnull align 4 dereferenceable(12) %2)
          to label %25 unwind label %26

25:                                               ; preds = %_ZN7QStringD2Ev.exit
  ret void

26:                                               ; preds = %_ZN7QStringD2Ev.exit
  %27 = landingpad { ptr, i32 }
          cleanup
  br label %30

28:                                               ; preds = %_ZN7QStringC2ERKS_.exit
  %29 = landingpad { ptr, i32 }
          cleanup
  br label %.body

.body:                                            ; preds = %16, %28
  %eh.lpad-body = phi { ptr, i32 } [ %29, %28 ], [ %17, %16 ]
  call void @_ZN7QStringD2Ev(ptr noundef nonnull align 8 dereferenceable(8) %7) #27
  br label %30

30:                                               ; preds = %.body, %26
  %.pn = phi { ptr, i32 } [ %27, %26 ], [ %eh.lpad-body, %.body ]
  call void @_ZN15QTreeWidgetItemD2Ev(ptr noundef nonnull align 8 dereferenceable(60) %0) #27
  resume { ptr, i32 } %.pn
}